; Function Attrs: mustprogress uwtable
define void @_ZN7rocksdb8FlushJob6CancelEv(ptr noundef nonnull readonly align 8 captures(none) dereferenceable(1688) %0) local_unnamed_addr #10 align 2 {
  %2 = getelementptr inbounds nuw i8, ptr %0, i64 256
  %3 = load ptr, ptr %2, align 8, !tbaa !126
  tail call void @_ZNK7rocksdb4port5Mutex10AssertHeldEv(ptr noundef nonnull align 8 dereferenceable(60) %3)
  %4 = getelementptr inbounds nuw i8, ptr %0, i64 1552
  %5 = load ptr, ptr %4, align 8, !tbaa !455
  %6 = tail call noundef zeroext i1 @_ZN7rocksdb7Version5UnrefEv(ptr noundef nonnull align 16 dereferenceable(5009) %5)
  ret void
}